; Function Attrs: mustprogress nounwind uwtable
define hidden void @_ZN23ShenandoahControlThreadC2Ev(ptr noundef nonnull align 8 dereferenceable(1868) %0) unnamed_addr #0 align 2 {
  tail call void @_ZN18ConcurrentGCThreadC2Ev(ptr noundef nonnull align 8 dereferenceable(918) %0) #10
  store ptr getelementptr inbounds inrange(-16, 248) (i8, ptr @_ZTV20ShenandoahController, i64 16), ptr %0, align 8
  %2 = getelementptr inbounds i8, ptr %0, i64 982
  %3 = tail call i8 asm sideeffect "xchgb ($2),$0", "=q,0,r,~{memory},~{dirflag},~{fpsr},~{flags}"(i8 0, ptr nonnull %2) #10, !srcloc !6
  %4 = getelementptr inbounds i8, ptr %0, i64 1112
  store volatile i64 0, ptr %4, align 8
  %5 = getelementptr inbounds i8, ptr %0, i64 1184
  store volatile i64 0, ptr %5, align 8
  %6 = getelementptr inbounds i8, ptr %0, i64 1320
  %7 = tail call i8 asm sideeffect "xchgb ($2),$0", "=q,0,r,~{memory},~{dirflag},~{fpsr},~{flags}"(i8 0, ptr nonnull %6) #10, !srcloc !6
  %8 = getelementptr inbounds i8, ptr %0, i64 1449
  %9 = tail call i8 asm sideeffect "xchgb ($2),$0", "=q,0,r,~{memory},~{dirflag},~{fpsr},~{flags}"(i8 0, ptr nonnull %8) #10, !srcloc !6
  %10 = getelementptr inbounds i8, ptr %0, i64 1520
  tail call void @_ZN5MutexC2ENS_4RankEPKcb(ptr noundef nonnull align 8 dereferenceable(104) %10, i32 noundef 39, ptr noundef nonnull @.str.12, i1 noundef zeroext true) #10
  %11 = getelementptr inbounds i8, ptr %0, i64 1624
  tail call void @_ZN5MutexC2ENS_4RankEPKcb(ptr noundef nonnull align 8 dereferenceable(104) %11, i32 noundef 39, ptr noundef nonnull @.str.13, i1 noundef zeroext true) #10
  store ptr getelementptr inbounds inrange(-16, 248) (i8, ptr @_ZTV23ShenandoahControlThread, i64 16), ptr %0, align 8
  %12 = getelementptr inbounds i8, ptr %0, i64 1792
  %13 = tail call i8 asm sideeffect "xchgb ($2),$0", "=q,0,r,~{memory},~{dirflag},~{fpsr},~{flags}"(i8 0, ptr nonnull %12) #10, !srcloc !6
  %14 = getelementptr inbounds i8, ptr %0, i64 1860
  store i32 12, ptr %14, align 4
  %15 = getelementptr inbounds i8, ptr %0, i64 1864
  store i32 1, ptr %15, align 8
  tail call void (ptr, ptr, ...) @_ZN11NamedThread8set_nameEPKcz(ptr noundef nonnull align 8 dereferenceable(916) %0, ptr noundef nonnull @.str) #10
  tail call void @_ZN18ConcurrentGCThread16create_and_startE14ThreadPriority(ptr noundef nonnull align 8 dereferenceable(918) %0, i32 noundef 9) #10
  ret void
}